; Function Attrs: mustprogress uwtable
define void @_ZN3gmx17AnalysisDataProxy12frameStartedERKNS_23AnalysisDataFrameHeaderE(ptr noundef nonnull align 8 dereferenceable(41) %0, ptr noundef nonnull align 4 dereferenceable(12) %1) unnamed_addr #1 align 2 {
  %3 = getelementptr inbounds i8, ptr %0, i64 40
  %4 = load i8, ptr %3, align 8
  %5 = trunc i8 %4 to i1
  %6 = tail call noundef nonnull align 8 dereferenceable(8) ptr @_ZN3gmx20AbstractAnalysisData13moduleManagerEv(ptr noundef nonnull align 8 dereferenceable(16) %0)
  br i1 %5, label %7, label %8

7:                                                ; preds = %2
  tail call void @_ZNK3gmx25AnalysisDataModuleManager24notifyParallelFrameStartERKNS_23AnalysisDataFrameHeaderE(ptr noundef nonnull align 8 dereferenceable(8) %6, ptr noundef nonnull align 4 dereferenceable(12) %1)
  br label %9

8:                                                ; preds = %2
  tail call void @_ZNK3gmx25AnalysisDataModuleManager16notifyFrameStartERKNS_23AnalysisDataFrameHeaderE(ptr noundef nonnull align 8 dereferenceable(8) %6, ptr noundef nonnull align 4 dereferenceable(12) %1)
  br label %9

9:                                                ; preds = %8, %7
  ret void
}